; Function Attrs: nofree nounwind memory(read) uwtable
define i32 @wc_ecc_get_curve_size_from_name(ptr noundef readonly %curveName) local_unnamed_addr #6 {
entry:
  %cmp = icmp eq ptr %curveName, null
  br i1 %cmp, label %return, label %for.body.i

for.body.i:                                       ; preds = %entry, %for.inc.i
  %indvars.iv.i = phi i64 [ %indvars.iv.next.i, %for.inc.i ], [ 0, %entry ]
  %arrayidx8.i = phi ptr [ %arrayidx.i, %for.inc.i ], [ @ecc_sets, %entry ]
  %name.i = getelementptr inbounds nuw i8, ptr %arrayidx8.i, i64 8
  %0 = load ptr, ptr %name.i, align 8
  %tobool.not.i = icmp eq ptr %0, null
  br i1 %tobool.not.i, label %for.inc.i, label %land.lhs.true.i

land.lhs.true.i:                                  ; preds = %for.body.i
  %call.i = tail call i32 @strcasecmp(ptr noundef nonnull %0, ptr noundef nonnull readonly %curveName) #20
  %cmp7.i = icmp eq i32 %call.i, 0
  br i1 %cmp7.i, label %if.end3, label %for.inc.i

for.inc.i:                                        ; preds = %land.lhs.true.i, %for.body.i
  %indvars.iv.next.i = add nuw nsw i64 %indvars.iv.i, 1
  %arrayidx.i = getelementptr inbounds nuw [6 x %struct.ecc_set_type], ptr @ecc_sets, i64 0, i64 %indvars.iv.next.i
  %exitcond.i = icmp eq i64 %indvars.iv.next.i, 5
  br i1 %exitcond.i, label %return, label %for.body.i, !llvm.loop !12

if.end3:                                          ; preds = %land.lhs.true.i
  %idxprom = and i64 %indvars.iv.i, 4294967295
  %arrayidx = getelementptr inbounds nuw [6 x %struct.ecc_set_type], ptr @ecc_sets, i64 0, i64 %idxprom
  %1 = load i32, ptr %arrayidx, align 8
  br label %return

return:                                           ; preds = %for.inc.i, %entry, %if.end3
  %retval.0 = phi i32 [ %1, %if.end3 ], [ -173, %entry ], [ -1, %for.inc.i ]
  ret i32 %retval.0
}